; Function Attrs: mustprogress uwtable
define void @ucal_add_75(ptr noundef %cal, i32 noundef %field, i32 noundef %amount, ptr noundef %status) local_unnamed_addr #1 {
entry:
  %0 = load i32, ptr %status, align 4
  %cmp.i = icmp slt i32 %0, 1
  br i1 %cmp.i, label %if.end, label %return

if.end:                                           ; preds = %entry
  %or.cond = icmp ugt i32 %field, 23
  br i1 %or.cond, label %if.then2, label %if.end3

if.then2:                                         ; preds = %if.end
  store i32 1, ptr %status, align 4
  br label %return

if.end3:                                          ; preds = %if.end
  %vtable = load ptr, ptr %cal, align 8
  %vfn = getelementptr inbounds i8, ptr %vtable, i64 56
  %1 = load ptr, ptr %vfn, align 8
  tail call void %1(ptr noundef nonnull align 8 dereferenceable(618) %cal, i32 noundef %field, i32 noundef %amount, ptr noundef nonnull align 4 dereferenceable(4) %status)
  br label %return

return:                                           ; preds = %entry, %if.end3, %if.then2
  ret void
}